target datalayout = "e-m:e-p270:32:32-p271:32:32-p272:64:64-i64:64-i128:128-f80:128-n8:16:32:64-S128"
target triple = "x86_64-pc-linux-gnu"

; Function Attrs: nounwind uwtable
define i32 @BIO_read(ptr noundef %0, ptr noundef %1, i32 noundef %2) #0 {
  %4 = alloca i32, align 4
  %5 = alloca ptr, align 8
  %6 = alloca ptr, align 8
  %7 = alloca i32, align 4
  %8 = alloca i64, align 8
  %9 = alloca i32, align 4
  %10 = alloca i32, align 4
  store ptr %0, ptr %5, align 8, !tbaa !10
  store ptr %1, ptr %6, align 8, !tbaa !25
  store i32 %2, ptr %7, align 4, !tbaa !26
  call void @llvm.lifetime.start.p0(i64 8, ptr %8) #5
  call void @llvm.lifetime.start.p0(i64 4, ptr %9) #5
  %11 = load i32, ptr %7, align 4, !tbaa !26
  %12 = icmp slt i32 %11, 0
  br i1 %12, label %13, label %14

13:                                               ; preds = %3
  store i32 0, ptr %4, align 4
  store i32 1, ptr %10, align 4
  br label %27

14:                                               ; preds = %3
  %15 = load ptr, ptr %5, align 8, !tbaa !10
  %16 = load ptr, ptr %6, align 8, !tbaa !25
  %17 = load i32, ptr %7, align 4, !tbaa !26
  %18 = sext i32 %17 to i64
  %19 = call i32 @bio_read_intern(ptr noundef %15, ptr noundef %16, i64 noundef %18, ptr noundef %8)
  store i32 %19, ptr %9, align 4, !tbaa !26
  %20 = load i32, ptr %9, align 4, !tbaa !26
  %21 = icmp sgt i32 %20, 0
  br i1 %21, label %22, label %25

22:                                               ; preds = %14
  %23 = load i64, ptr %8, align 8, !tbaa !34
  %24 = trunc i64 %23 to i32
  store i32 %24, ptr %9, align 4, !tbaa !26
  br label %25

25:                                               ; preds = %22, %14
  %26 = load i32, ptr %9, align 4, !tbaa !26
  store i32 %26, ptr %4, align 4
  store i32 1, ptr %10, align 4
  br label %27

27:                                               ; preds = %25, %13
  call void @llvm.lifetime.end.p0(i64 4, ptr %9) #5
  call void @llvm.lifetime.end.p0(i64 8, ptr %8) #5
  %28 = load i32, ptr %4, align 4
  ret i32 %28
}